; ModuleID = '29/659.c'
source_filename = "29/659.c"
target datalayout = "e-m:e-p270:32:32-p271:32:32-p272:64:64-i64:64-f80:128-n8:16:32:64-S128"
target triple = "x86_64-pc-linux-gnu"

@.str = private unnamed_addr constant [3 x i8] c"%d\00", align 1
@.str.1 = private unnamed_addr constant [7 x i8] c"%.3lf\0A\00", align 1

; Function Attrs: noinline nounwind uwtable
define dso_local i32 @main() #0 {
  %1 = alloca i32, align 4
  %2 = alloca i32, align 4
  %3 = alloca i32, align 4
  %4 = alloca i32, align 4
  %5 = alloca i32, align 4
  %6 = alloca i32, align 4
  %7 = alloca double, align 8
  %8 = alloca i32, align 4
  store i32 0, i32* %1, align 4
  store i32 1, i32* %2, align 4
  store i32 1, i32* %3, align 4
  store double 0.000000e+00, double* %7, align 8
  %9 = call i32 (i8*, ...) @__isoc99_scanf(i8* getelementptr inbounds ([3 x i8], [3 x i8]* @.str, i64 0, i64 0), i32* %4)
  store i32 0, i32* %6, align 4
  br label %10

10:                                               ; preds = %59, %0
  %11 = load i32, i32* %6, align 4
  %12 = load i32, i32* %4, align 4
  %13 = icmp slt i32 %11, %12
  br i1 %13, label %14, label %62

14:                                               ; preds = %10
  %15 = call i32 (i8*, ...) @__isoc99_scanf(i8* getelementptr inbounds ([3 x i8], [3 x i8]* @.str, i64 0, i64 0), i32* %5)
  store i32 0, i32* %8, align 4
  br label %16

16:                                               ; preds = %53, %14
  %17 = load i32, i32* %8, align 4
  %18 = load i32, i32* %5, align 4
  %19 = icmp slt i32 %17, %18
  br i1 %19, label %20, label %56

20:                                               ; preds = %16
  %21 = load i32, i32* %8, align 4
  %22 = srem i32 %21, 2
  %23 = icmp eq i32 %22, 0
  br i1 %23, label %24, label %38

24:                                               ; preds = %20
  %25 = load i32, i32* %2, align 4
  %26 = load i32, i32* %3, align 4
  %27 = add nsw i32 %25, %26
  %28 = sitofp i32 %27 to double
  %29 = fmul double %28, 1.000000e+00
  %30 = load i32, i32* %2, align 4
  %31 = sitofp i32 %30 to double
  %32 = fdiv double %29, %31
  %33 = load double, double* %7, align 8
  %34 = fadd double %33, %32
  store double %34, double* %7, align 8
  %35 = load i32, i32* %2, align 4
  %36 = load i32, i32* %3, align 4
  %37 = add nsw i32 %35, %36
  store i32 %37, i32* %3, align 4
  br label %52

38:                                               ; preds = %20
  %39 = load i32, i32* %2, align 4
  %40 = load i32, i32* %3, align 4
  %41 = add nsw i32 %39, %40
  %42 = sitofp i32 %41 to double
  %43 = fmul double %42, 1.000000e+00
  %44 = load i32, i32* %3, align 4
  %45 = sitofp i32 %44 to double
  %46 = fdiv double %43, %45
  %47 = load double, double* %7, align 8
  %48 = fadd double %47, %46
  store double %48, double* %7, align 8
  %49 = load i32, i32* %2, align 4
  %50 = load i32, i32* %3, align 4
  %51 = add nsw i32 %49, %50
  store i32 %51, i32* %2, align 4
  br label %52

52:                                               ; preds = %38, %24
  br label %53

53:                                               ; preds = %52
  %54 = load i32, i32* %8, align 4
  %55 = add nsw i32 %54, 1
  store i32 %55, i32* %8, align 4
  br label %16

56:                                               ; preds = %16
  %57 = load double, double* %7, align 8
  %58 = call i32 (i8*, ...) @printf(i8* getelementptr inbounds ([7 x i8], [7 x i8]* @.str.1, i64 0, i64 0), double %57)
  store double 0.000000e+00, double* %7, align 8
  store i32 1, i32* %2, align 4
  store i32 1, i32* %3, align 4
  br label %59

59:                                               ; preds = %56
  %60 = load i32, i32* %6, align 4
  %61 = add nsw i32 %60, 1
  store i32 %61, i32* %6, align 4
  br label %10

62:                                               ; preds = %10
  ret i32 0
}

declare dso_local i32 @__isoc99_scanf(i8*, ...) #1

declare dso_local i32 @printf(i8*, ...) #1


!llvm.module.flags = !{!0}
!llvm.ident = !{!1}

!0 = !{i32 1, !"wchar_size", i32 4}
!1 = !{!"clang version 10.0.0-4ubuntu1 "}
